; Function Attrs: mustprogress uwtable
define noundef i32 @_ZN14AtomProperties21atomNumberFromElementEPKc(ptr nocapture noundef nonnull readonly align 8 dereferenceable(8) %0, ptr noundef %1) local_unnamed_addr #0 align 2 {
  %3 = load ptr, ptr %0, align 8
  %4 = getelementptr inbounds i8, ptr %3, i64 296
  %5 = getelementptr inbounds i8, ptr %3, i64 368
  %6 = load i8, ptr %3, align 8
  %7 = trunc i8 %6 to i1
  %8 = tail call fastcc noundef zeroext i1 @_ZL13setPropertiesP12AtomPropertyRKSt13unordered_mapINSt7__cxx1112basic_stringIcSt11char_traitsIcESaIcEEES7_St4hashIS7_EN3gmx20EqualCaseInsensitiveESaISt4pairIKS7_S7_EEEib(ptr noundef nonnull %4, ptr noundef nonnull align 8 dereferenceable(56) %5, i32 noundef 4, i1 noundef zeroext %7)
  br i1 %8, label %9, label %11

9:                                                ; preds = %2
  %puts.i = tail call i32 @puts(ptr nonnull dereferenceable(1) @str)
  %10 = load ptr, ptr %0, align 8
  store i8 1, ptr %10, align 8
  br label %11

11:                                               ; preds = %9, %2
  %12 = load ptr, ptr %0, align 8
  %13 = getelementptr inbounds i8, ptr %12, i64 344
  %14 = load ptr, ptr %13, align 8
  %15 = getelementptr inbounds i8, ptr %12, i64 352
  %16 = load ptr, ptr %15, align 8
  %.not10 = icmp eq ptr %14, %16
  br i1 %.not10, label %.loopexit, label %.lr.ph

.lr.ph:                                           ; preds = %11, %25
  %.sroa.06.011 = phi ptr [ %26, %25 ], [ %14, %11 ]
  %17 = tail call noundef ptr @_ZNKSt7__cxx1112basic_stringIcSt11char_traitsIcESaIcEE5c_strEv(ptr noundef nonnull align 8 dereferenceable(32) %.sroa.06.011) #19
  %18 = tail call noundef i32 @_Z14gmx_strcasecmpPKcS0_(ptr noundef %17, ptr noundef %1)
  %19 = icmp eq i32 %18, 0
  br i1 %19, label %20, label %25

20:                                               ; preds = %.lr.ph
  %21 = getelementptr inbounds i8, ptr %.sroa.06.011, i64 68
  %22 = load float, ptr %21, align 4
  %23 = tail call float @llvm.rint.f32(float %22)
  %24 = fptosi float %23 to i32
  br label %.loopexit

25:                                               ; preds = %.lr.ph
  %26 = getelementptr inbounds i8, ptr %.sroa.06.011, i64 72
  %.not = icmp eq ptr %26, %16
  br i1 %.not, label %.loopexit, label %.lr.ph

.loopexit:                                        ; preds = %25, %11, %20
  %.0 = phi i32 [ %24, %20 ], [ -1, %11 ], [ -1, %25 ]
  ret i32 %.0
}